target datalayout = "e-m:e-p270:32:32-p271:32:32-p272:64:64-i64:64-i128:128-f80:128-n8:16:32:64-S128"
target triple = "x86_64-pc-linux-gnu"

%struct.re_pattern_buffer = type { ptr, ptr, ptr, i32, i32, ptr, ptr, i32, i32, i32, i32, i32, i32, i32, i32, i32, ptr, ptr, i32, ptr, i32, ptr, i32, i32, i32, i32, i32, i32, ptr, ptr, [256 x i8], i32, i32, i32, ptr }
%struct.Operation = type { ptr, %union.anon }
%union.anon = type { %struct.anon.0 }
%struct.anon.0 = type { ptr, i32 }
%struct.anon.1 = type { ptr, i32, i32 }

; Function Attrs: nounwind uwtable
define internal i32 @ops_calc_size_of_string_pool(ptr noundef %0) #0 {
  %2 = alloca i32, align 4
  %3 = alloca ptr, align 8
  %4 = alloca i32, align 4
  %5 = alloca i32, align 4
  %6 = alloca i32, align 4
  %7 = alloca i32, align 4
  %8 = alloca ptr, align 8
  store ptr %0, ptr %3, align 8, !tbaa !8
  call void @llvm.lifetime.start.p0(i64 4, ptr %4) #9
  call void @llvm.lifetime.start.p0(i64 4, ptr %5) #9
  %9 = load ptr, ptr %3, align 8, !tbaa !8
  %10 = getelementptr inbounds nuw %struct.re_pattern_buffer, ptr %9, i32 0, i32 0
  %11 = load ptr, ptr %10, align 8, !tbaa !29
  %12 = icmp eq ptr %11, null
  br i1 %12, label %13, label %14

13:                                               ; preds = %1
  store i32 0, ptr %2, align 4
  store i32 1, ptr %6, align 4
  br label %71

14:                                               ; preds = %1
  store i32 0, ptr %5, align 4, !tbaa !4
  store i32 0, ptr %4, align 4, !tbaa !4
  br label %15

15:                                               ; preds = %66, %14
  %16 = load i32, ptr %4, align 4, !tbaa !4
  %17 = load ptr, ptr %3, align 8, !tbaa !8
  %18 = getelementptr inbounds nuw %struct.re_pattern_buffer, ptr %17, i32 0, i32 3
  %19 = load i32, ptr %18, align 8, !tbaa !30
  %20 = icmp slt i32 %16, %19
  br i1 %20, label %21, label %69

21:                                               ; preds = %15
  call void @llvm.lifetime.start.p0(i64 4, ptr %7) #9
  call void @llvm.lifetime.start.p0(i64 8, ptr %8) #9
  %22 = load ptr, ptr %3, align 8, !tbaa !8
  %23 = getelementptr inbounds nuw %struct.re_pattern_buffer, ptr %22, i32 0, i32 0
  %24 = load ptr, ptr %23, align 8, !tbaa !29
  %25 = load i32, ptr %4, align 4, !tbaa !4
  %26 = sext i32 %25 to i64
  %27 = getelementptr inbounds %struct.Operation, ptr %24, i64 %26
  store ptr %27, ptr %8, align 8, !tbaa !15
  %28 = load ptr, ptr %3, align 8, !tbaa !8
  %29 = getelementptr inbounds nuw %struct.re_pattern_buffer, ptr %28, i32 0, i32 1
  %30 = load ptr, ptr %29, align 8, !tbaa !31
  %31 = load i32, ptr %4, align 4, !tbaa !4
  %32 = sext i32 %31 to i64
  %33 = getelementptr inbounds i32, ptr %30, i64 %32
  %34 = load i32, ptr %33, align 4, !tbaa !4
  store i32 %34, ptr %7, align 4, !tbaa !4
  %35 = load i32, ptr %7, align 4, !tbaa !4
  switch i32 %35, label %64 [
    i32 13, label %36
    i32 7, label %48
    i32 11, label %48
    i32 12, label %56
  ]

36:                                               ; preds = %21
  %37 = load ptr, ptr %8, align 8, !tbaa !15
  %38 = getelementptr inbounds nuw %struct.Operation, ptr %37, i32 0, i32 1
  %39 = getelementptr inbounds nuw %struct.anon.1, ptr %38, i32 0, i32 2
  %40 = load i32, ptr %39, align 4, !tbaa !32
  %41 = load ptr, ptr %8, align 8, !tbaa !15
  %42 = getelementptr inbounds nuw %struct.Operation, ptr %41, i32 0, i32 1
  %43 = getelementptr inbounds nuw %struct.anon.1, ptr %42, i32 0, i32 1
  %44 = load i32, ptr %43, align 8, !tbaa !32
  %45 = mul nsw i32 %40, %44
  %46 = load i32, ptr %5, align 4, !tbaa !4
  %47 = add nsw i32 %46, %45
  store i32 %47, ptr %5, align 4, !tbaa !4
  br label %65

48:                                               ; preds = %21, %21
  %49 = load ptr, ptr %8, align 8, !tbaa !15
  %50 = getelementptr inbounds nuw %struct.Operation, ptr %49, i32 0, i32 1
  %51 = getelementptr inbounds nuw %struct.anon.0, ptr %50, i32 0, i32 1
  %52 = load i32, ptr %51, align 8, !tbaa !32
  %53 = mul nsw i32 %52, 2
  %54 = load i32, ptr %5, align 4, !tbaa !4
  %55 = add nsw i32 %54, %53
  store i32 %55, ptr %5, align 4, !tbaa !4
  br label %65

56:                                               ; preds = %21
  %57 = load ptr, ptr %8, align 8, !tbaa !15
  %58 = getelementptr inbounds nuw %struct.Operation, ptr %57, i32 0, i32 1
  %59 = getelementptr inbounds nuw %struct.anon.0, ptr %58, i32 0, i32 1
  %60 = load i32, ptr %59, align 8, !tbaa !32
  %61 = mul nsw i32 %60, 3
  %62 = load i32, ptr %5, align 4, !tbaa !4
  %63 = add nsw i32 %62, %61
  store i32 %63, ptr %5, align 4, !tbaa !4
  br label %65

64:                                               ; preds = %21
  br label %65

65:                                               ; preds = %64, %56, %48, %36
  call void @llvm.lifetime.end.p0(i64 8, ptr %8) #9
  call void @llvm.lifetime.end.p0(i64 4, ptr %7) #9
  br label %66

66:                                               ; preds = %65
  %67 = load i32, ptr %4, align 4, !tbaa !4
  %68 = add nsw i32 %67, 1
  store i32 %68, ptr %4, align 4, !tbaa !4
  br label %15, !llvm.loop !345

69:                                               ; preds = %15
  %70 = load i32, ptr %5, align 4, !tbaa !4
  store i32 %70, ptr %2, align 4
  store i32 1, ptr %6, align 4
  br label %71

71:                                               ; preds = %69, %13
  call void @llvm.lifetime.end.p0(i64 4, ptr %5) #9
  call void @llvm.lifetime.end.p0(i64 4, ptr %4) #9
  %72 = load i32, ptr %2, align 4
  ret i32 %72
}

; Function Attrs: nounwind uwtable
define internal i32 @ops_make_string_pool(ptr noundef %0) #0 {
  %2 = alloca i32, align 4
  %3 = alloca ptr, align 8
  %4 = alloca i32, align 4
  %5 = alloca i32, align 4
  %6 = alloca i32, align 4
  %7 = alloca ptr, align 8
  %8 = alloca ptr, align 8
  %9 = alloca i32, align 4
  %10 = alloca i32, align 4
  %11 = alloca ptr, align 8
  store ptr %0, ptr %3, align 8, !tbaa !8
  call void @llvm.lifetime.start.p0(i64 4, ptr %4) #9
  call void @llvm.lifetime.start.p0(i64 4, ptr %5) #9
  call void @llvm.lifetime.start.p0(i64 4, ptr %6) #9
  call void @llvm.lifetime.start.p0(i64 8, ptr %7) #9
  call void @llvm.lifetime.start.p0(i64 8, ptr %8) #9
  %12 = load ptr, ptr %3, align 8, !tbaa !8
  %13 = call i32 @ops_calc_size_of_string_pool(ptr noundef %12)
  store i32 %13, ptr %6, align 4, !tbaa !4
  %14 = load i32, ptr %6, align 4, !tbaa !4
  %15 = icmp sle i32 %14, 0
  br i1 %15, label %16, label %17

16:                                               ; preds = %1
  store i32 0, ptr %2, align 4
  store i32 1, ptr %9, align 4
  br label %127

17:                                               ; preds = %1
  %18 = load i32, ptr %6, align 4, !tbaa !4
  %19 = sext i32 %18 to i64
  %20 = call noalias ptr @malloc(i64 noundef %19) #10
  store ptr %20, ptr %7, align 8, !tbaa !23
  store ptr %20, ptr %8, align 8, !tbaa !23
  %21 = load ptr, ptr %7, align 8, !tbaa !23
  %22 = icmp eq ptr %21, null
  br i1 %22, label %23, label %24

23:                                               ; preds = %17
  store i32 -5, ptr %2, align 4
  store i32 1, ptr %9, align 4
  br label %127

24:                                               ; preds = %17
  store i32 0, ptr %4, align 4, !tbaa !4
  br label %25

25:                                               ; preds = %114, %24
  %26 = load i32, ptr %4, align 4, !tbaa !4
  %27 = load ptr, ptr %3, align 8, !tbaa !8
  %28 = getelementptr inbounds nuw %struct.re_pattern_buffer, ptr %27, i32 0, i32 3
  %29 = load i32, ptr %28, align 8, !tbaa !30
  %30 = icmp slt i32 %26, %29
  br i1 %30, label %31, label %117

31:                                               ; preds = %25
  call void @llvm.lifetime.start.p0(i64 4, ptr %10) #9
  call void @llvm.lifetime.start.p0(i64 8, ptr %11) #9
  %32 = load ptr, ptr %3, align 8, !tbaa !8
  %33 = getelementptr inbounds nuw %struct.re_pattern_buffer, ptr %32, i32 0, i32 0
  %34 = load ptr, ptr %33, align 8, !tbaa !29
  %35 = load i32, ptr %4, align 4, !tbaa !4
  %36 = sext i32 %35 to i64
  %37 = getelementptr inbounds %struct.Operation, ptr %34, i64 %36
  store ptr %37, ptr %11, align 8, !tbaa !15
  %38 = load ptr, ptr %3, align 8, !tbaa !8
  %39 = getelementptr inbounds nuw %struct.re_pattern_buffer, ptr %38, i32 0, i32 1
  %40 = load ptr, ptr %39, align 8, !tbaa !31
  %41 = load i32, ptr %4, align 4, !tbaa !4
  %42 = sext i32 %41 to i64
  %43 = getelementptr inbounds i32, ptr %40, i64 %42
  %44 = load i32, ptr %43, align 4, !tbaa !4
  store i32 %44, ptr %10, align 4, !tbaa !4
  %45 = load i32, ptr %10, align 4, !tbaa !4
  switch i32 %45, label %112 [
    i32 13, label %46
    i32 7, label %75
    i32 11, label %100
    i32 12, label %106
  ]

46:                                               ; preds = %31
  %47 = load ptr, ptr %11, align 8, !tbaa !15
  %48 = getelementptr inbounds nuw %struct.Operation, ptr %47, i32 0, i32 1
  %49 = getelementptr inbounds nuw %struct.anon.1, ptr %48, i32 0, i32 2
  %50 = load i32, ptr %49, align 4, !tbaa !32
  %51 = load ptr, ptr %11, align 8, !tbaa !15
  %52 = getelementptr inbounds nuw %struct.Operation, ptr %51, i32 0, i32 1
  %53 = getelementptr inbounds nuw %struct.anon.1, ptr %52, i32 0, i32 1
  %54 = load i32, ptr %53, align 8, !tbaa !32
  %55 = mul nsw i32 %50, %54
  store i32 %55, ptr %5, align 4, !tbaa !4
  %56 = load ptr, ptr %8, align 8, !tbaa !23
  %57 = load ptr, ptr %11, align 8, !tbaa !15
  %58 = getelementptr inbounds nuw %struct.Operation, ptr %57, i32 0, i32 1
  %59 = getelementptr inbounds nuw %struct.anon.1, ptr %58, i32 0, i32 0
  %60 = load ptr, ptr %59, align 8, !tbaa !32
  %61 = load i32, ptr %5, align 4, !tbaa !4
  %62 = sext i32 %61 to i64
  call void @llvm.memcpy.p0.p0.i64(ptr align 1 %56, ptr align 1 %60, i64 %62, i1 false)
  %63 = load ptr, ptr %11, align 8, !tbaa !15
  %64 = getelementptr inbounds nuw %struct.Operation, ptr %63, i32 0, i32 1
  %65 = getelementptr inbounds nuw %struct.anon.1, ptr %64, i32 0, i32 0
  %66 = load ptr, ptr %65, align 8, !tbaa !32
  call void @free(ptr noundef %66) #9
  %67 = load ptr, ptr %8, align 8, !tbaa !23
  %68 = load ptr, ptr %11, align 8, !tbaa !15
  %69 = getelementptr inbounds nuw %struct.Operation, ptr %68, i32 0, i32 1
  %70 = getelementptr inbounds nuw %struct.anon.1, ptr %69, i32 0, i32 0
  store ptr %67, ptr %70, align 8, !tbaa !32
  %71 = load i32, ptr %5, align 4, !tbaa !4
  %72 = load ptr, ptr %8, align 8, !tbaa !23
  %73 = sext i32 %71 to i64
  %74 = getelementptr inbounds i8, ptr %72, i64 %73
  store ptr %74, ptr %8, align 8, !tbaa !23
  br label %113

75:                                               ; preds = %31
  %76 = load ptr, ptr %11, align 8, !tbaa !15
  %77 = getelementptr inbounds nuw %struct.Operation, ptr %76, i32 0, i32 1
  %78 = getelementptr inbounds nuw %struct.anon.0, ptr %77, i32 0, i32 1
  %79 = load i32, ptr %78, align 8, !tbaa !32
  store i32 %79, ptr %5, align 4, !tbaa !4
  br label %80

80:                                               ; preds = %106, %100, %75
  %81 = load ptr, ptr %8, align 8, !tbaa !23
  %82 = load ptr, ptr %11, align 8, !tbaa !15
  %83 = getelementptr inbounds nuw %struct.Operation, ptr %82, i32 0, i32 1
  %84 = getelementptr inbounds nuw %struct.anon.0, ptr %83, i32 0, i32 0
  %85 = load ptr, ptr %84, align 8, !tbaa !32
  %86 = load i32, ptr %5, align 4, !tbaa !4
  %87 = sext i32 %86 to i64
  call void @llvm.memcpy.p0.p0.i64(ptr align 1 %81, ptr align 1 %85, i64 %87, i1 false)
  %88 = load ptr, ptr %11, align 8, !tbaa !15
  %89 = getelementptr inbounds nuw %struct.Operation, ptr %88, i32 0, i32 1
  %90 = getelementptr inbounds nuw %struct.anon.0, ptr %89, i32 0, i32 0
  %91 = load ptr, ptr %90, align 8, !tbaa !32
  call void @free(ptr noundef %91) #9
  %92 = load ptr, ptr %8, align 8, !tbaa !23
  %93 = load ptr, ptr %11, align 8, !tbaa !15
  %94 = getelementptr inbounds nuw %struct.Operation, ptr %93, i32 0, i32 1
  %95 = getelementptr inbounds nuw %struct.anon.0, ptr %94, i32 0, i32 0
  store ptr %92, ptr %95, align 8, !tbaa !32
  %96 = load i32, ptr %5, align 4, !tbaa !4
  %97 = load ptr, ptr %8, align 8, !tbaa !23
  %98 = sext i32 %96 to i64
  %99 = getelementptr inbounds i8, ptr %97, i64 %98
  store ptr %99, ptr %8, align 8, !tbaa !23
  br label %113

100:                                              ; preds = %31
  %101 = load ptr, ptr %11, align 8, !tbaa !15
  %102 = getelementptr inbounds nuw %struct.Operation, ptr %101, i32 0, i32 1
  %103 = getelementptr inbounds nuw %struct.anon.0, ptr %102, i32 0, i32 1
  %104 = load i32, ptr %103, align 8, !tbaa !32
  %105 = mul nsw i32 %104, 2
  store i32 %105, ptr %5, align 4, !tbaa !4
  br label %80

106:                                              ; preds = %31
  %107 = load ptr, ptr %11, align 8, !tbaa !15
  %108 = getelementptr inbounds nuw %struct.Operation, ptr %107, i32 0, i32 1
  %109 = getelementptr inbounds nuw %struct.anon.0, ptr %108, i32 0, i32 1
  %110 = load i32, ptr %109, align 8, !tbaa !32
  %111 = mul nsw i32 %110, 3
  store i32 %111, ptr %5, align 4, !tbaa !4
  br label %80

112:                                              ; preds = %31
  br label %113

113:                                              ; preds = %112, %80, %46
  call void @llvm.lifetime.end.p0(i64 8, ptr %11) #9
  call void @llvm.lifetime.end.p0(i64 4, ptr %10) #9
  br label %114

114:                                              ; preds = %113
  %115 = load i32, ptr %4, align 4, !tbaa !4
  %116 = add nsw i32 %115, 1
  store i32 %116, ptr %4, align 4, !tbaa !4
  br label %25, !llvm.loop !114

117:                                              ; preds = %25
  %118 = load ptr, ptr %7, align 8, !tbaa !23
  %119 = load ptr, ptr %3, align 8, !tbaa !8
  %120 = getelementptr inbounds nuw %struct.re_pattern_buffer, ptr %119, i32 0, i32 5
  store ptr %118, ptr %120, align 8, !tbaa !25
  %121 = load ptr, ptr %7, align 8, !tbaa !23
  %122 = load i32, ptr %6, align 4, !tbaa !4
  %123 = sext i32 %122 to i64
  %124 = getelementptr inbounds i8, ptr %121, i64 %123
  %125 = load ptr, ptr %3, align 8, !tbaa !8
  %126 = getelementptr inbounds nuw %struct.re_pattern_buffer, ptr %125, i32 0, i32 6
  store ptr %124, ptr %126, align 8, !tbaa !26
  store i32 0, ptr %2, align 4
  store i32 1, ptr %9, align 4
  br label %127

127:                                              ; preds = %117, %23, %16
  call void @llvm.lifetime.end.p0(i64 8, ptr %8) #9
  call void @llvm.lifetime.end.p0(i64 8, ptr %7) #9
  call void @llvm.lifetime.end.p0(i64 4, ptr %6) #9
  call void @llvm.lifetime.end.p0(i64 4, ptr %5) #9
  call void @llvm.lifetime.end.p0(i64 4, ptr %4) #9
  %128 = load i32, ptr %2, align 4
  ret i32 %128
}